; Function Attrs: mustprogress uwtable
define hidden noundef ptr @_ZNK6google8protobuf10Reflection26FindKnownExtensionByNumberEi(ptr noundef nonnull readonly align 8 captures(none) dereferenceable(96) %0, i32 noundef %1) local_unnamed_addr #3 align 2 {
  %3 = getelementptr inbounds nuw i8, ptr %0, i64 40
  %4 = load i32, ptr %3, align 8, !tbaa !49
  %.not = icmp eq i32 %4, -1
  br i1 %.not, label %10, label %5

5:                                                ; preds = %2
  %6 = getelementptr inbounds nuw i8, ptr %0, i64 72
  %7 = load ptr, ptr %6, align 8, !tbaa !29
  %8 = load ptr, ptr %0, align 8, !tbaa !18
  %9 = tail call noundef ptr @_ZNK6google8protobuf14DescriptorPool21FindExtensionByNumberEPKNS0_10DescriptorEi(ptr noundef nonnull align 8 dereferenceable(96) %7, ptr noundef %8, i32 noundef %1)
  br label %10

10:                                               ; preds = %2, %5
  %.0 = phi ptr [ %9, %5 ], [ null, %2 ]
  ret ptr %.0
}